; Function Attrs: mustprogress nofree norecurse nosync nounwind willreturn memory(argmem: read) uwtable
define noundef zeroext i1 @_ZNK32pxrInternal_v0_24__pxrReserved__14PcpMapFunction21IsIdentityPathMappingEv(ptr nocapture noundef nonnull readonly align 8 dereferenceable(56) %0) local_unnamed_addr #5 align 2 {
  %2 = getelementptr inbounds nuw i8, ptr %0, i64 32
  %3 = load i32, ptr %2, align 8
  %4 = icmp eq i32 %3, 0
  %5 = getelementptr inbounds nuw i8, ptr %0, i64 36
  %6 = load i8, ptr %5, align 4
  %7 = trunc i8 %6 to i1
  %8 = select i1 %4, i1 %7, i1 false
  ret i1 %8
}